; Function Attrs: mustprogress nofree norecurse nosync nounwind willreturn memory(argmem: read) uwtable
define dso_local noundef i32 @_ZNK4llvm12StructLayout26getElementContainingOffsetEm(ptr noundef nonnull align 8 dereferenceable(24) %0, i64 noundef %1) local_unnamed_addr #3 align 2 {
  %3 = getelementptr inbounds nuw i8, ptr %0, i64 24
  %4 = getelementptr inbounds nuw i8, ptr %0, i64 20
  %5 = load i32, ptr %4, align 4
  %6 = and i32 %5, 2147483647
  %.not = icmp eq i32 %6, 0
  br i1 %.not, label %"_ZSt11upper_boundIPKN4llvm8TypeSizeES1_ZNKS0_12StructLayout26getElementContainingOffsetEmE3$_0ET_S6_S6_RKT0_T1_.exit", label %"_ZN9__gnu_cxx5__ops14_Val_comp_iterIZNK4llvm12StructLayout26getElementContainingOffsetEmE3$_0EclIKNS2_8TypeSizeEPS8_EEbRT_T0_.exit.i.i.preheader"

"_ZN9__gnu_cxx5__ops14_Val_comp_iterIZNK4llvm12StructLayout26getElementContainingOffsetEmE3$_0EclIKNS2_8TypeSizeEPS8_EEbRT_T0_.exit.i.i.preheader": ; preds = %2
  %7 = zext nneg i32 %6 to i64
  br label %"_ZN9__gnu_cxx5__ops14_Val_comp_iterIZNK4llvm12StructLayout26getElementContainingOffsetEmE3$_0EclIKNS2_8TypeSizeEPS8_EEbRT_T0_.exit.i.i"

"_ZN9__gnu_cxx5__ops14_Val_comp_iterIZNK4llvm12StructLayout26getElementContainingOffsetEmE3$_0EclIKNS2_8TypeSizeEPS8_EEbRT_T0_.exit.i.i": ; preds = %"_ZN9__gnu_cxx5__ops14_Val_comp_iterIZNK4llvm12StructLayout26getElementContainingOffsetEmE3$_0EclIKNS2_8TypeSizeEPS8_EEbRT_T0_.exit.i.i.preheader", %"_ZN9__gnu_cxx5__ops14_Val_comp_iterIZNK4llvm12StructLayout26getElementContainingOffsetEmE3$_0EclIKNS2_8TypeSizeEPS8_EEbRT_T0_.exit.i.i"
  %.012.i.i = phi ptr [ %15, %"_ZN9__gnu_cxx5__ops14_Val_comp_iterIZNK4llvm12StructLayout26getElementContainingOffsetEmE3$_0EclIKNS2_8TypeSizeEPS8_EEbRT_T0_.exit.i.i" ], [ %3, %"_ZN9__gnu_cxx5__ops14_Val_comp_iterIZNK4llvm12StructLayout26getElementContainingOffsetEmE3$_0EclIKNS2_8TypeSizeEPS8_EEbRT_T0_.exit.i.i.preheader" ]
  %.01111.i.i = phi i64 [ %14, %"_ZN9__gnu_cxx5__ops14_Val_comp_iterIZNK4llvm12StructLayout26getElementContainingOffsetEmE3$_0EclIKNS2_8TypeSizeEPS8_EEbRT_T0_.exit.i.i" ], [ %7, %"_ZN9__gnu_cxx5__ops14_Val_comp_iterIZNK4llvm12StructLayout26getElementContainingOffsetEmE3$_0EclIKNS2_8TypeSizeEPS8_EEbRT_T0_.exit.i.i.preheader" ]
  %8 = lshr i64 %.01111.i.i, 1
  %9 = getelementptr inbounds nuw %"class.llvm::TypeSize", ptr %.012.i.i, i64 %8
  %.val14.i.i = load i64, ptr %9, align 8
  %.val14.i.i.fr = freeze i64 %.val14.i.i
  %10 = icmp ult i64 %1, %.val14.i.i.fr
  %11 = xor i64 %8, -1
  %12 = add nsw i64 %.01111.i.i, %11
  %13 = getelementptr inbounds nuw i8, ptr %9, i64 16
  %14 = select i1 %10, i64 %8, i64 %12
  %15 = select i1 %10, ptr %.012.i.i, ptr %13
  %16 = icmp sgt i64 %14, 0
  br i1 %16, label %"_ZN9__gnu_cxx5__ops14_Val_comp_iterIZNK4llvm12StructLayout26getElementContainingOffsetEmE3$_0EclIKNS2_8TypeSizeEPS8_EEbRT_T0_.exit.i.i", label %"_ZSt11upper_boundIPKN4llvm8TypeSizeES1_ZNKS0_12StructLayout26getElementContainingOffsetEmE3$_0ET_S6_S6_RKT0_T1_.exit", !llvm.loop !6

"_ZSt11upper_boundIPKN4llvm8TypeSizeES1_ZNKS0_12StructLayout26getElementContainingOffsetEmE3$_0ET_S6_S6_RKT0_T1_.exit": ; preds = %"_ZN9__gnu_cxx5__ops14_Val_comp_iterIZNK4llvm12StructLayout26getElementContainingOffsetEmE3$_0EclIKNS2_8TypeSizeEPS8_EEbRT_T0_.exit.i.i", %2
  %.0.lcssa.i.i = phi ptr [ %3, %2 ], [ %15, %"_ZN9__gnu_cxx5__ops14_Val_comp_iterIZNK4llvm12StructLayout26getElementContainingOffsetEmE3$_0EclIKNS2_8TypeSizeEPS8_EEbRT_T0_.exit.i.i" ]
  %17 = ptrtoint ptr %3 to i64
  %18 = getelementptr inbounds i8, ptr %.0.lcssa.i.i, i64 -16
  %19 = ptrtoint ptr %18 to i64
  %20 = sub i64 %19, %17
  %21 = lshr exact i64 %20, 4
  %22 = trunc i64 %21 to i32
  ret i32 %22
}